target datalayout = "e-m:e-p270:32:32-p271:32:32-p272:64:64-i64:64-i128:128-f80:128-n8:16:32:64-S128"
target triple = "x86_64-pc-linux-gnu"

%"class.o3dgc::Arithmetic_Codec" = type <{ ptr, ptr, ptr, i32, i32, i32, i32, i32, [4 x i8] }>

@.str.3 = private unnamed_addr constant [19 x i8] c"no code buffer set\00", align 1
@.str.4 = private unnamed_addr constant [21 x i8] c"cannot start decoder\00", align 1
@.str.5 = private unnamed_addr constant [27 x i8] c"cannot read code from file\00", align 1
@.str.6 = private unnamed_addr constant [21 x i8] c"code buffer overflow\00", align 1

; Function Attrs: mustprogress uwtable
define hidden void @_ZN5o3dgc16Arithmetic_Codec13start_decoderEv(ptr noundef nonnull align 8 dereferenceable(44) %0) #0 align 2 {
  %2 = alloca ptr, align 8
  store ptr %0, ptr %2, align 8
  %3 = load ptr, ptr %2, align 8
  %4 = getelementptr inbounds nuw %"class.o3dgc::Arithmetic_Codec", ptr %3, i32 0, i32 7
  %5 = load i32, ptr %4, align 8
  %6 = icmp ne i32 %5, 0
  br i1 %6, label %7, label %8

7:                                                ; preds = %1
  call void @_ZN5o3dgcL8AC_ErrorEPKc(ptr noundef @.str.4) #13
  unreachable

8:                                                ; preds = %1
  %9 = getelementptr inbounds nuw %"class.o3dgc::Arithmetic_Codec", ptr %3, i32 0, i32 6
  %10 = load i32, ptr %9, align 4
  %11 = icmp eq i32 %10, 0
  br i1 %11, label %12, label %13

12:                                               ; preds = %8
  call void @_ZN5o3dgcL8AC_ErrorEPKc(ptr noundef @.str.3) #13
  unreachable

13:                                               ; preds = %8
  %14 = getelementptr inbounds nuw %"class.o3dgc::Arithmetic_Codec", ptr %3, i32 0, i32 7
  store i32 2, ptr %14, align 8
  %15 = getelementptr inbounds nuw %"class.o3dgc::Arithmetic_Codec", ptr %3, i32 0, i32 5
  store i32 -1, ptr %15, align 8
  %16 = getelementptr inbounds nuw %"class.o3dgc::Arithmetic_Codec", ptr %3, i32 0, i32 0
  %17 = load ptr, ptr %16, align 8
  %18 = getelementptr inbounds i8, ptr %17, i64 3
  %19 = getelementptr inbounds nuw %"class.o3dgc::Arithmetic_Codec", ptr %3, i32 0, i32 2
  store ptr %18, ptr %19, align 8
  %20 = getelementptr inbounds nuw %"class.o3dgc::Arithmetic_Codec", ptr %3, i32 0, i32 0
  %21 = load ptr, ptr %20, align 8
  %22 = getelementptr inbounds i8, ptr %21, i64 0
  %23 = load i8, ptr %22, align 1
  %24 = zext i8 %23 to i32
  %25 = shl i32 %24, 24
  %26 = getelementptr inbounds nuw %"class.o3dgc::Arithmetic_Codec", ptr %3, i32 0, i32 0
  %27 = load ptr, ptr %26, align 8
  %28 = getelementptr inbounds i8, ptr %27, i64 1
  %29 = load i8, ptr %28, align 1
  %30 = zext i8 %29 to i32
  %31 = shl i32 %30, 16
  %32 = or i32 %25, %31
  %33 = getelementptr inbounds nuw %"class.o3dgc::Arithmetic_Codec", ptr %3, i32 0, i32 0
  %34 = load ptr, ptr %33, align 8
  %35 = getelementptr inbounds i8, ptr %34, i64 2
  %36 = load i8, ptr %35, align 1
  %37 = zext i8 %36 to i32
  %38 = shl i32 %37, 8
  %39 = or i32 %32, %38
  %40 = getelementptr inbounds nuw %"class.o3dgc::Arithmetic_Codec", ptr %3, i32 0, i32 0
  %41 = load ptr, ptr %40, align 8
  %42 = getelementptr inbounds i8, ptr %41, i64 3
  %43 = load i8, ptr %42, align 1
  %44 = zext i8 %43 to i32
  %45 = or i32 %39, %44
  %46 = getelementptr inbounds nuw %"class.o3dgc::Arithmetic_Codec", ptr %3, i32 0, i32 4
  store i32 %45, ptr %46, align 4
  ret void
}

; Function Attrs: mustprogress uwtable
define hidden void @_ZN5o3dgc16Arithmetic_Codec14read_from_fileEP8_IO_FILE(ptr noundef nonnull align 8 dereferenceable(44) %0, ptr noundef %1) #0 align 2 {
  %3 = alloca ptr, align 8
  %4 = alloca ptr, align 8
  %5 = alloca i32, align 4
  %6 = alloca i32, align 4
  %7 = alloca i32, align 4
  store ptr %0, ptr %3, align 8
  store ptr %1, ptr %4, align 8
  %8 = load ptr, ptr %3, align 8
  call void @llvm.lifetime.start.p0(i64 4, ptr %5) #12
  store i32 0, ptr %5, align 4
  call void @llvm.lifetime.start.p0(i64 4, ptr %6) #12
  store i32 0, ptr %6, align 4
  call void @llvm.lifetime.start.p0(i64 4, ptr %7) #12
  br label %9

9:                                                ; preds = %23, %2
  %10 = load ptr, ptr %4, align 8
  %11 = call i32 @getc(ptr noundef %10)
  store i32 %11, ptr %7, align 4
  %12 = icmp eq i32 %11, -1
  br i1 %12, label %13, label %14

13:                                               ; preds = %9
  call void @_ZN5o3dgcL8AC_ErrorEPKc(ptr noundef @.str.5) #13
  unreachable

14:                                               ; preds = %9
  %15 = load i32, ptr %7, align 4
  %16 = and i32 %15, 127
  %17 = load i32, ptr %5, align 4
  %18 = shl i32 %16, %17
  %19 = load i32, ptr %6, align 4
  %20 = or i32 %19, %18
  store i32 %20, ptr %6, align 4
  %21 = load i32, ptr %5, align 4
  %22 = add i32 %21, 7
  store i32 %22, ptr %5, align 4
  br label %23

23:                                               ; preds = %14
  %24 = load i32, ptr %7, align 4
  %25 = and i32 %24, 128
  %26 = icmp ne i32 %25, 0
  br i1 %26, label %9, label %27, !llvm.loop !18

27:                                               ; preds = %23
  %28 = load i32, ptr %6, align 4
  %29 = getelementptr inbounds nuw %"class.o3dgc::Arithmetic_Codec", ptr %8, i32 0, i32 6
  %30 = load i32, ptr %29, align 4
  %31 = icmp ugt i32 %28, %30
  br i1 %31, label %32, label %33

32:                                               ; preds = %27
  call void @_ZN5o3dgcL8AC_ErrorEPKc(ptr noundef @.str.6) #13
  unreachable

33:                                               ; preds = %27
  %34 = getelementptr inbounds nuw %"class.o3dgc::Arithmetic_Codec", ptr %8, i32 0, i32 0
  %35 = load ptr, ptr %34, align 8
  %36 = load i32, ptr %6, align 4
  %37 = zext i32 %36 to i64
  %38 = load ptr, ptr %4, align 8
  %39 = call i64 @fread(ptr noundef %35, i64 noundef 1, i64 noundef %37, ptr noundef %38)
  %40 = load i32, ptr %6, align 4
  %41 = zext i32 %40 to i64
  %42 = icmp ne i64 %39, %41
  br i1 %42, label %43, label %44

43:                                               ; preds = %33
  call void @_ZN5o3dgcL8AC_ErrorEPKc(ptr noundef @.str.5) #13
  unreachable

44:                                               ; preds = %33
  call void @_ZN5o3dgc16Arithmetic_Codec13start_decoderEv(ptr noundef nonnull align 8 dereferenceable(44) %8)
  call void @llvm.lifetime.end.p0(i64 4, ptr %7) #12
  call void @llvm.lifetime.end.p0(i64 4, ptr %6) #12
  call void @llvm.lifetime.end.p0(i64 4, ptr %5) #12
  ret void
}