; Function Attrs: mustprogress uwtable
define hidden void @_ZN5o3dgc16Arithmetic_Codec14read_from_fileEP8_IO_FILE(ptr noundef nonnull align 8 captures(none) dereferenceable(44) %0, ptr noundef captures(none) %1) local_unnamed_addr #5 align 2 {
  br label %3

3:                                                ; preds = %7, %2
  %.010 = phi i32 [ 0, %2 ], [ %10, %7 ]
  %.0 = phi i32 [ 0, %2 ], [ %11, %7 ]
  %4 = tail call i32 @getc(ptr noundef %1)
  %5 = icmp eq i32 %4, -1
  br i1 %5, label %6, label %7

6:                                                ; preds = %3
  tail call fastcc void @_ZN5o3dgcL8AC_ErrorEPKc(ptr noundef nonnull @.str.5) #16
  unreachable

7:                                                ; preds = %3
  %8 = and i32 %4, 127
  %9 = shl i32 %8, %.0
  %10 = or i32 %9, %.010
  %11 = add i32 %.0, 7
  %12 = and i32 %4, 128
  %.not = icmp eq i32 %12, 0
  br i1 %.not, label %13, label %3, !llvm.loop !16

13:                                               ; preds = %7
  %14 = getelementptr inbounds nuw i8, ptr %0, i64 36
  %15 = load i32, ptr %14, align 4
  %16 = icmp ugt i32 %10, %15
  br i1 %16, label %17, label %18

17:                                               ; preds = %13
  tail call fastcc void @_ZN5o3dgcL8AC_ErrorEPKc(ptr noundef nonnull @.str.6) #16
  unreachable

18:                                               ; preds = %13
  %19 = load ptr, ptr %0, align 8
  %20 = zext i32 %10 to i64
  %21 = tail call i64 @fread(ptr noundef %19, i64 noundef 1, i64 noundef %20, ptr noundef %1)
  %.not13 = icmp eq i64 %21, %20
  br i1 %.not13, label %23, label %22

22:                                               ; preds = %18
  tail call fastcc void @_ZN5o3dgcL8AC_ErrorEPKc(ptr noundef nonnull @.str.5) #16
  unreachable

23:                                               ; preds = %18
  %24 = getelementptr inbounds nuw i8, ptr %0, i64 40
  %25 = load i32, ptr %24, align 8
  %.not.i = icmp eq i32 %25, 0
  br i1 %.not.i, label %27, label %26

26:                                               ; preds = %23
  tail call fastcc void @_ZN5o3dgcL8AC_ErrorEPKc(ptr noundef nonnull @.str.4) #16
  unreachable

27:                                               ; preds = %23
  %28 = load i32, ptr %14, align 4
  %29 = icmp eq i32 %28, 0
  br i1 %29, label %30, label %_ZN5o3dgc16Arithmetic_Codec13start_decoderEv.exit

30:                                               ; preds = %27
  tail call fastcc void @_ZN5o3dgcL8AC_ErrorEPKc(ptr noundef nonnull @.str.3) #16
  unreachable

_ZN5o3dgc16Arithmetic_Codec13start_decoderEv.exit: ; preds = %27
  store i32 2, ptr %24, align 8
  %31 = getelementptr inbounds nuw i8, ptr %0, i64 32
  store i32 -1, ptr %31, align 8
  %32 = load ptr, ptr %0, align 8
  %33 = getelementptr inbounds nuw i8, ptr %32, i64 3
  %34 = getelementptr inbounds nuw i8, ptr %0, i64 16
  store ptr %33, ptr %34, align 8
  %35 = load i8, ptr %32, align 1
  %36 = zext i8 %35 to i32
  %37 = shl nuw i32 %36, 24
  %38 = getelementptr inbounds nuw i8, ptr %32, i64 1
  %39 = load i8, ptr %38, align 1
  %40 = zext i8 %39 to i32
  %41 = shl nuw nsw i32 %40, 16
  %42 = or disjoint i32 %41, %37
  %43 = getelementptr inbounds nuw i8, ptr %32, i64 2
  %44 = load i8, ptr %43, align 1
  %45 = zext i8 %44 to i32
  %46 = shl nuw nsw i32 %45, 8
  %47 = or disjoint i32 %42, %46
  %48 = load i8, ptr %33, align 1
  %49 = zext i8 %48 to i32
  %50 = or disjoint i32 %47, %49
  %51 = getelementptr inbounds nuw i8, ptr %0, i64 28
  store i32 %50, ptr %51, align 4
  ret void
}